target datalayout = "e-m:e-p270:32:32-p271:32:32-p272:64:64-i64:64-i128:128-f80:128-n8:16:32:64-S128"
target triple = "x86_64-pc-linux-gnu"

%struct.b2Vec2 = type { float, float }
%struct.b2Rot = type { float, float }
%struct.b2JointSim = type { i32, i32, i32, i32, %struct.b2Vec2, %struct.b2Vec2, float, float, float, float, %union.anon }
%union.anon = type { %struct.b2PrismaticJoint }
%struct.b2PrismaticJoint = type { %struct.b2Vec2, %struct.b2Vec2, float, float, float, float, float, float, float, float, float, float, float, i32, i32, %struct.b2Vec2, %struct.b2Vec2, %struct.b2Vec2, %struct.b2Vec2, float, float, %struct.b2Softness, i8, i8, i8 }
%struct.b2Softness = type { float, float, float }
%struct.b2DistanceJoint = type { float, float, float, float, float, float, float, float, float, float, float, i32, i32, %struct.b2Vec2, %struct.b2Vec2, %struct.b2Vec2, %struct.b2Softness, float, i8, i8, i8 }
%struct.b2Transform = type { %struct.b2Vec2, %struct.b2Rot }
%struct.b2World = type { %struct.b2ArenaAllocator, %struct.b2BroadPhase, %struct.b2ConstraintGraph, %struct.b2IdPool, %struct.b2BodyArray, %struct.b2IdPool, %struct.b2SolverSetArray, %struct.b2IdPool, %struct.b2JointArray, %struct.b2IdPool, %struct.b2ContactArray, %struct.b2IdPool, %struct.b2IslandArray, %struct.b2IdPool, %struct.b2IdPool, %struct.b2ShapeArray, %struct.b2ChainShapeArray, %struct.b2SensorArray, %struct.b2TaskContextArray, %struct.b2SensorTaskContextArray, %struct.b2BodyMoveEventArray, %struct.b2SensorBeginTouchEventArray, %struct.b2ContactBeginTouchEventArray, [2 x %struct.b2SensorEndTouchEventArray], [2 x %struct.b2ContactEndTouchEventArray], i32, %struct.b2ContactHitEventArray, %struct.b2BitSet, %struct.b2BitSet, %struct.b2BitSet, i64, i32, %struct.b2Vec2, float, float, float, float, float, float, float, float, ptr, ptr, i16, %struct.b2Profile, ptr, ptr, ptr, ptr, i32, ptr, ptr, ptr, ptr, ptr, float, i32, i32, i16, i8, i8, i8, i8, i8, i8 }
%struct.b2ArenaAllocator = type { ptr, i32, i32, i32, i32, %struct.b2ArenaEntryArray }
%struct.b2ArenaEntryArray = type { ptr, i32, i32 }
%struct.b2BroadPhase = type { [3 x %struct.b2DynamicTree], i32, %struct.b2HashSet, %struct.b2IntArray, ptr, ptr, i32, %struct.b2AtomicInt, %struct.b2HashSet }
%struct.b2DynamicTree = type { ptr, i32, i32, i32, i32, i32, ptr, ptr, ptr, ptr, i32 }
%struct.b2IntArray = type { ptr, i32, i32 }
%struct.b2AtomicInt = type { i32 }
%struct.b2HashSet = type { ptr, i32, i32 }
%struct.b2ConstraintGraph = type { [12 x %struct.b2GraphColor] }
%struct.b2GraphColor = type { %struct.b2BitSet, %struct.b2ContactSimArray, %struct.b2JointSimArray, %union.anon.0 }
%struct.b2ContactSimArray = type { ptr, i32, i32 }
%struct.b2JointSimArray = type { ptr, i32, i32 }
%union.anon.0 = type { ptr }
%struct.b2BodyArray = type { ptr, i32, i32 }
%struct.b2SolverSetArray = type { ptr, i32, i32 }
%struct.b2JointArray = type { ptr, i32, i32 }
%struct.b2ContactArray = type { ptr, i32, i32 }
%struct.b2IslandArray = type { ptr, i32, i32 }
%struct.b2IdPool = type { %struct.b2IntArray, i32 }
%struct.b2ShapeArray = type { ptr, i32, i32 }
%struct.b2ChainShapeArray = type { ptr, i32, i32 }
%struct.b2SensorArray = type { ptr, i32, i32 }
%struct.b2TaskContextArray = type { ptr, i32, i32 }
%struct.b2SensorTaskContextArray = type { ptr, i32, i32 }
%struct.b2BodyMoveEventArray = type { ptr, i32, i32 }
%struct.b2SensorBeginTouchEventArray = type { ptr, i32, i32 }
%struct.b2ContactBeginTouchEventArray = type { ptr, i32, i32 }
%struct.b2SensorEndTouchEventArray = type { ptr, i32, i32 }
%struct.b2ContactEndTouchEventArray = type { ptr, i32, i32 }
%struct.b2ContactHitEventArray = type { ptr, i32, i32 }
%struct.b2BitSet = type { ptr, i32, i32 }
%struct.b2Profile = type { float, float, float, float, float, float, float, float, float, float, float, float, float, float, float, float, float, float, float, float, float, float }

@b2Vec2_zero = internal constant %struct.b2Vec2 zeroinitializer, align 4

; Function Attrs: inlinehint nounwind uwtable
define internal <2 x float> @b2MulSV(float noundef %0, <2 x float> %1) #5 {
  %3 = alloca %struct.b2Vec2, align 4
  %4 = alloca %struct.b2Vec2, align 4
  %5 = alloca float, align 4
  store <2 x float> %1, ptr %4, align 4
  store float %0, ptr %5, align 4, !tbaa !3
  %6 = getelementptr inbounds nuw %struct.b2Vec2, ptr %3, i32 0, i32 0
  %7 = load float, ptr %5, align 4, !tbaa !3
  %8 = getelementptr inbounds nuw %struct.b2Vec2, ptr %4, i32 0, i32 0
  %9 = load float, ptr %8, align 4, !tbaa !87
  %10 = fmul float %7, %9
  store float %10, ptr %6, align 4, !tbaa !87
  %11 = getelementptr inbounds nuw %struct.b2Vec2, ptr %3, i32 0, i32 1
  %12 = load float, ptr %5, align 4, !tbaa !3
  %13 = getelementptr inbounds nuw %struct.b2Vec2, ptr %4, i32 0, i32 1
  %14 = load float, ptr %13, align 4, !tbaa !89
  %15 = fmul float %12, %14
  store float %15, ptr %11, align 4, !tbaa !89
  %16 = load <2 x float>, ptr %3, align 4
  ret <2 x float> %16
}

; Function Attrs: inlinehint nounwind uwtable
define internal <2 x float> @b2Normalize(<2 x float> %0) #5 {
  %2 = alloca %struct.b2Vec2, align 4
  %3 = alloca %struct.b2Vec2, align 4
  %4 = alloca float, align 4
  %5 = alloca i32, align 4
  %6 = alloca float, align 4
  store <2 x float> %0, ptr %3, align 4
  call void @llvm.lifetime.start.p0(i64 4, ptr %4) #8
  %7 = getelementptr inbounds nuw %struct.b2Vec2, ptr %3, i32 0, i32 0
  %8 = load float, ptr %7, align 4, !tbaa !87
  %9 = getelementptr inbounds nuw %struct.b2Vec2, ptr %3, i32 0, i32 0
  %10 = load float, ptr %9, align 4, !tbaa !87
  %11 = fmul float %8, %10
  %12 = getelementptr inbounds nuw %struct.b2Vec2, ptr %3, i32 0, i32 1
  %13 = load float, ptr %12, align 4, !tbaa !89
  %14 = getelementptr inbounds nuw %struct.b2Vec2, ptr %3, i32 0, i32 1
  %15 = load float, ptr %14, align 4, !tbaa !89
  %16 = fmul float %13, %15
  %17 = fadd float %11, %16
  %18 = call float @sqrtf(float noundef %17) #8, !tbaa !92
  store float %18, ptr %4, align 4, !tbaa !3
  %19 = load float, ptr %4, align 4, !tbaa !3
  %20 = fcmp olt float %19, 0x3E80000000000000
  br i1 %20, label %21, label %22

21:                                               ; preds = %1
  call void @llvm.memcpy.p0.p0.i64(ptr align 4 %2, ptr align 4 @b2Vec2_zero, i64 8, i1 false), !tbaa.struct !97
  store i32 1, ptr %5, align 4
  br label %35

22:                                               ; preds = %1
  call void @llvm.lifetime.start.p0(i64 4, ptr %6) #8
  %23 = load float, ptr %4, align 4, !tbaa !3
  %24 = fdiv float 1.000000e+00, %23
  store float %24, ptr %6, align 4, !tbaa !3
  %25 = getelementptr inbounds nuw %struct.b2Vec2, ptr %2, i32 0, i32 0
  %26 = load float, ptr %6, align 4, !tbaa !3
  %27 = getelementptr inbounds nuw %struct.b2Vec2, ptr %3, i32 0, i32 0
  %28 = load float, ptr %27, align 4, !tbaa !87
  %29 = fmul float %26, %28
  store float %29, ptr %25, align 4, !tbaa !87
  %30 = getelementptr inbounds nuw %struct.b2Vec2, ptr %2, i32 0, i32 1
  %31 = load float, ptr %6, align 4, !tbaa !3
  %32 = getelementptr inbounds nuw %struct.b2Vec2, ptr %3, i32 0, i32 1
  %33 = load float, ptr %32, align 4, !tbaa !89
  %34 = fmul float %31, %33
  store float %34, ptr %30, align 4, !tbaa !89
  store i32 1, ptr %5, align 4
  call void @llvm.lifetime.end.p0(i64 4, ptr %6) #8
  br label %35

35:                                               ; preds = %22, %21
  call void @llvm.lifetime.end.p0(i64 4, ptr %4) #8
  %36 = load <2 x float>, ptr %2, align 4
  ret <2 x float> %36
}

; Function Attrs: inlinehint nounwind uwtable
define internal <2 x float> @b2Sub(<2 x float> %0, <2 x float> %1) #5 {
  %3 = alloca %struct.b2Vec2, align 4
  %4 = alloca %struct.b2Vec2, align 4
  %5 = alloca %struct.b2Vec2, align 4
  store <2 x float> %0, ptr %4, align 4
  store <2 x float> %1, ptr %5, align 4
  %6 = getelementptr inbounds nuw %struct.b2Vec2, ptr %3, i32 0, i32 0
  %7 = getelementptr inbounds nuw %struct.b2Vec2, ptr %4, i32 0, i32 0
  %8 = load float, ptr %7, align 4, !tbaa !87
  %9 = getelementptr inbounds nuw %struct.b2Vec2, ptr %5, i32 0, i32 0
  %10 = load float, ptr %9, align 4, !tbaa !87
  %11 = fsub float %8, %10
  store float %11, ptr %6, align 4, !tbaa !87
  %12 = getelementptr inbounds nuw %struct.b2Vec2, ptr %3, i32 0, i32 1
  %13 = getelementptr inbounds nuw %struct.b2Vec2, ptr %4, i32 0, i32 1
  %14 = load float, ptr %13, align 4, !tbaa !89
  %15 = getelementptr inbounds nuw %struct.b2Vec2, ptr %5, i32 0, i32 1
  %16 = load float, ptr %15, align 4, !tbaa !89
  %17 = fsub float %14, %16
  store float %17, ptr %12, align 4, !tbaa !89
  %18 = load <2 x float>, ptr %3, align 4
  ret <2 x float> %18
}

; Function Attrs: inlinehint nounwind uwtable
define internal <2 x float> @b2TransformPoint(<2 x float> %0, <2 x float> %1, <2 x float> %2) #5 {
  %4 = alloca %struct.b2Vec2, align 4
  %5 = alloca %struct.b2Transform, align 4
  %6 = alloca %struct.b2Vec2, align 4
  %7 = alloca float, align 4
  %8 = alloca float, align 4
  %9 = getelementptr inbounds nuw { <2 x float>, <2 x float> }, ptr %5, i32 0, i32 0
  store <2 x float> %0, ptr %9, align 4
  %10 = getelementptr inbounds nuw { <2 x float>, <2 x float> }, ptr %5, i32 0, i32 1
  store <2 x float> %1, ptr %10, align 4
  store <2 x float> %2, ptr %6, align 4
  call void @llvm.lifetime.start.p0(i64 4, ptr %7) #8
  %11 = getelementptr inbounds nuw %struct.b2Transform, ptr %5, i32 0, i32 1
  %12 = getelementptr inbounds nuw %struct.b2Rot, ptr %11, i32 0, i32 0
  %13 = load float, ptr %12, align 4, !tbaa !84
  %14 = getelementptr inbounds nuw %struct.b2Vec2, ptr %6, i32 0, i32 0
  %15 = load float, ptr %14, align 4, !tbaa !87
  %16 = fmul float %13, %15
  %17 = getelementptr inbounds nuw %struct.b2Transform, ptr %5, i32 0, i32 1
  %18 = getelementptr inbounds nuw %struct.b2Rot, ptr %17, i32 0, i32 1
  %19 = load float, ptr %18, align 4, !tbaa !88
  %20 = getelementptr inbounds nuw %struct.b2Vec2, ptr %6, i32 0, i32 1
  %21 = load float, ptr %20, align 4, !tbaa !89
  %22 = fmul float %19, %21
  %23 = fsub float %16, %22
  %24 = getelementptr inbounds nuw %struct.b2Transform, ptr %5, i32 0, i32 0
  %25 = getelementptr inbounds nuw %struct.b2Vec2, ptr %24, i32 0, i32 0
  %26 = load float, ptr %25, align 4, !tbaa !90
  %27 = fadd float %23, %26
  store float %27, ptr %7, align 4, !tbaa !3
  call void @llvm.lifetime.start.p0(i64 4, ptr %8) #8
  %28 = getelementptr inbounds nuw %struct.b2Transform, ptr %5, i32 0, i32 1
  %29 = getelementptr inbounds nuw %struct.b2Rot, ptr %28, i32 0, i32 1
  %30 = load float, ptr %29, align 4, !tbaa !88
  %31 = getelementptr inbounds nuw %struct.b2Vec2, ptr %6, i32 0, i32 0
  %32 = load float, ptr %31, align 4, !tbaa !87
  %33 = fmul float %30, %32
  %34 = getelementptr inbounds nuw %struct.b2Transform, ptr %5, i32 0, i32 1
  %35 = getelementptr inbounds nuw %struct.b2Rot, ptr %34, i32 0, i32 0
  %36 = load float, ptr %35, align 4, !tbaa !84
  %37 = getelementptr inbounds nuw %struct.b2Vec2, ptr %6, i32 0, i32 1
  %38 = load float, ptr %37, align 4, !tbaa !89
  %39 = fmul float %36, %38
  %40 = fadd float %33, %39
  %41 = getelementptr inbounds nuw %struct.b2Transform, ptr %5, i32 0, i32 0
  %42 = getelementptr inbounds nuw %struct.b2Vec2, ptr %41, i32 0, i32 1
  %43 = load float, ptr %42, align 4, !tbaa !91
  %44 = fadd float %40, %43
  store float %44, ptr %8, align 4, !tbaa !3
  %45 = getelementptr inbounds nuw %struct.b2Vec2, ptr %4, i32 0, i32 0
  %46 = load float, ptr %7, align 4, !tbaa !3
  store float %46, ptr %45, align 4, !tbaa !87
  %47 = getelementptr inbounds nuw %struct.b2Vec2, ptr %4, i32 0, i32 1
  %48 = load float, ptr %8, align 4, !tbaa !3
  store float %48, ptr %47, align 4, !tbaa !89
  call void @llvm.lifetime.end.p0(i64 4, ptr %8) #8
  call void @llvm.lifetime.end.p0(i64 4, ptr %7) #8
  %49 = load <2 x float>, ptr %4, align 4
  ret <2 x float> %49
}

; Function Attrs: nounwind uwtable
define hidden <2 x float> @b2GetDistanceJointForce(ptr noundef %0, ptr noundef %1) #4 {
  %3 = alloca %struct.b2Vec2, align 4
  %4 = alloca ptr, align 8
  %5 = alloca ptr, align 8
  %6 = alloca ptr, align 8
  %7 = alloca %struct.b2Transform, align 4
  %8 = alloca %struct.b2Transform, align 4
  %9 = alloca %struct.b2Vec2, align 4
  %10 = alloca %struct.b2Vec2, align 4
  %11 = alloca %struct.b2Vec2, align 4
  %12 = alloca %struct.b2Vec2, align 4
  %13 = alloca float, align 4
  store ptr %0, ptr %4, align 8, !tbaa !31
  store ptr %1, ptr %5, align 8, !tbaa !7
  call void @llvm.lifetime.start.p0(i64 8, ptr %6) #8
  %14 = load ptr, ptr %5, align 8, !tbaa !7
  %15 = getelementptr inbounds nuw %struct.b2JointSim, ptr %14, i32 0, i32 10
  store ptr %15, ptr %6, align 8, !tbaa !10
  call void @llvm.lifetime.start.p0(i64 16, ptr %7) #8
  %16 = load ptr, ptr %4, align 8, !tbaa !31
  %17 = load ptr, ptr %5, align 8, !tbaa !7
  %18 = getelementptr inbounds nuw %struct.b2JointSim, ptr %17, i32 0, i32 1
  %19 = load i32, ptr %18, align 4, !tbaa !81
  %20 = call { <2 x float>, <2 x float> } @b2GetBodyTransform(ptr noundef %16, i32 noundef %19)
  %21 = getelementptr inbounds nuw { <2 x float>, <2 x float> }, ptr %7, i32 0, i32 0
  %22 = extractvalue { <2 x float>, <2 x float> } %20, 0
  store <2 x float> %22, ptr %21, align 4
  %23 = getelementptr inbounds nuw { <2 x float>, <2 x float> }, ptr %7, i32 0, i32 1
  %24 = extractvalue { <2 x float>, <2 x float> } %20, 1
  store <2 x float> %24, ptr %23, align 4
  call void @llvm.lifetime.start.p0(i64 16, ptr %8) #8
  %25 = load ptr, ptr %4, align 8, !tbaa !31
  %26 = load ptr, ptr %5, align 8, !tbaa !7
  %27 = getelementptr inbounds nuw %struct.b2JointSim, ptr %26, i32 0, i32 2
  %28 = load i32, ptr %27, align 4, !tbaa !83
  %29 = call { <2 x float>, <2 x float> } @b2GetBodyTransform(ptr noundef %25, i32 noundef %28)
  %30 = getelementptr inbounds nuw { <2 x float>, <2 x float> }, ptr %8, i32 0, i32 0
  %31 = extractvalue { <2 x float>, <2 x float> } %29, 0
  store <2 x float> %31, ptr %30, align 4
  %32 = getelementptr inbounds nuw { <2 x float>, <2 x float> }, ptr %8, i32 0, i32 1
  %33 = extractvalue { <2 x float>, <2 x float> } %29, 1
  store <2 x float> %33, ptr %32, align 4
  call void @llvm.lifetime.start.p0(i64 8, ptr %9) #8
  %34 = load ptr, ptr %5, align 8, !tbaa !7
  %35 = getelementptr inbounds nuw %struct.b2JointSim, ptr %34, i32 0, i32 4
  %36 = getelementptr inbounds nuw { <2 x float>, <2 x float> }, ptr %7, i32 0, i32 0
  %37 = load <2 x float>, ptr %36, align 4
  %38 = getelementptr inbounds nuw { <2 x float>, <2 x float> }, ptr %7, i32 0, i32 1
  %39 = load <2 x float>, ptr %38, align 4
  %40 = load <2 x float>, ptr %35, align 4
  %41 = call <2 x float> @b2TransformPoint(<2 x float> %37, <2 x float> %39, <2 x float> %40)
  store <2 x float> %41, ptr %9, align 4
  call void @llvm.lifetime.start.p0(i64 8, ptr %10) #8
  %42 = load ptr, ptr %5, align 8, !tbaa !7
  %43 = getelementptr inbounds nuw %struct.b2JointSim, ptr %42, i32 0, i32 5
  %44 = getelementptr inbounds nuw { <2 x float>, <2 x float> }, ptr %8, i32 0, i32 0
  %45 = load <2 x float>, ptr %44, align 4
  %46 = getelementptr inbounds nuw { <2 x float>, <2 x float> }, ptr %8, i32 0, i32 1
  %47 = load <2 x float>, ptr %46, align 4
  %48 = load <2 x float>, ptr %43, align 4
  %49 = call <2 x float> @b2TransformPoint(<2 x float> %45, <2 x float> %47, <2 x float> %48)
  store <2 x float> %49, ptr %10, align 4
  call void @llvm.lifetime.start.p0(i64 8, ptr %11) #8
  %50 = load <2 x float>, ptr %10, align 4
  %51 = load <2 x float>, ptr %9, align 4
  %52 = call <2 x float> @b2Sub(<2 x float> %50, <2 x float> %51)
  store <2 x float> %52, ptr %11, align 4
  call void @llvm.lifetime.start.p0(i64 8, ptr %12) #8
  %53 = load <2 x float>, ptr %11, align 4
  %54 = call <2 x float> @b2Normalize(<2 x float> %53)
  store <2 x float> %54, ptr %12, align 4
  call void @llvm.lifetime.start.p0(i64 4, ptr %13) #8
  %55 = load ptr, ptr %6, align 8, !tbaa !10
  %56 = getelementptr inbounds nuw %struct.b2DistanceJoint, ptr %55, i32 0, i32 7
  %57 = load float, ptr %56, align 4, !tbaa !18
  %58 = load ptr, ptr %6, align 8, !tbaa !10
  %59 = getelementptr inbounds nuw %struct.b2DistanceJoint, ptr %58, i32 0, i32 8
  %60 = load float, ptr %59, align 4, !tbaa !19
  %61 = fadd float %57, %60
  %62 = load ptr, ptr %6, align 8, !tbaa !10
  %63 = getelementptr inbounds nuw %struct.b2DistanceJoint, ptr %62, i32 0, i32 9
  %64 = load float, ptr %63, align 4, !tbaa !20
  %65 = fsub float %61, %64
  %66 = load ptr, ptr %6, align 8, !tbaa !10
  %67 = getelementptr inbounds nuw %struct.b2DistanceJoint, ptr %66, i32 0, i32 10
  %68 = load float, ptr %67, align 4, !tbaa !96
  %69 = fadd float %65, %68
  %70 = load ptr, ptr %4, align 8, !tbaa !31
  %71 = getelementptr inbounds nuw %struct.b2World, ptr %70, i32 0, i32 55
  %72 = load float, ptr %71, align 8, !tbaa !95
  %73 = fmul float %69, %72
  store float %73, ptr %13, align 4, !tbaa !3
  %74 = load float, ptr %13, align 4, !tbaa !3
  %75 = load <2 x float>, ptr %12, align 4
  %76 = call <2 x float> @b2MulSV(float noundef %74, <2 x float> %75)
  store <2 x float> %76, ptr %3, align 4
  call void @llvm.lifetime.end.p0(i64 4, ptr %13) #8
  call void @llvm.lifetime.end.p0(i64 8, ptr %12) #8
  call void @llvm.lifetime.end.p0(i64 8, ptr %11) #8
  call void @llvm.lifetime.end.p0(i64 8, ptr %10) #8
  call void @llvm.lifetime.end.p0(i64 8, ptr %9) #8
  call void @llvm.lifetime.end.p0(i64 16, ptr %8) #8
  call void @llvm.lifetime.end.p0(i64 16, ptr %7) #8
  call void @llvm.lifetime.end.p0(i64 8, ptr %6) #8
  %77 = load <2 x float>, ptr %3, align 4
  ret <2 x float> %77
}