; Function Attrs: nounwind uwtable
define hidden <2 x float> @b2GetDistanceJointForce(ptr noundef %0, ptr noundef readonly captures(none) %1) local_unnamed_addr #3 {
  %3 = getelementptr inbounds nuw i8, ptr %1, i64 4
  %4 = load i32, ptr %3, align 4, !tbaa !72
  %5 = tail call { <2 x float>, <2 x float> } @b2GetBodyTransform(ptr noundef %0, i32 noundef %4) #9
  %6 = extractvalue { <2 x float>, <2 x float> } %5, 0
  %7 = extractvalue { <2 x float>, <2 x float> } %5, 1
  %8 = getelementptr inbounds nuw i8, ptr %1, i64 8
  %9 = load i32, ptr %8, align 4, !tbaa !74
  %10 = tail call { <2 x float>, <2 x float> } @b2GetBodyTransform(ptr noundef %0, i32 noundef %9) #9
  %11 = extractvalue { <2 x float>, <2 x float> } %10, 0
  %12 = extractvalue { <2 x float>, <2 x float> } %10, 1
  %13 = getelementptr inbounds nuw i8, ptr %1, i64 16
  %14 = load <2 x float>, ptr %13, align 4
  %.sroa.3.8.vec.extract.i = extractelement <2 x float> %7, i64 0
  %.sroa.0.0.vec.extract.i = extractelement <2 x float> %14, i64 0
  %15 = fmul <2 x float> %7, %14
  %16 = extractelement <2 x float> %15, i64 0
  %.sroa.3.12.vec.extract.i = extractelement <2 x float> %7, i64 1
  %.sroa.0.4.vec.extract.i = extractelement <2 x float> %14, i64 1
  %17 = fmul float %.sroa.3.12.vec.extract.i, %.sroa.0.4.vec.extract.i
  %18 = fsub float %16, %17
  %.sroa.06.0.vec.extract.i = extractelement <2 x float> %6, i64 0
  %19 = fadd float %.sroa.06.0.vec.extract.i, %18
  %20 = fmul float %.sroa.3.12.vec.extract.i, %.sroa.0.0.vec.extract.i
  %21 = fmul float %.sroa.3.8.vec.extract.i, %.sroa.0.4.vec.extract.i
  %22 = fadd float %20, %21
  %.sroa.06.4.vec.extract.i = extractelement <2 x float> %6, i64 1
  %23 = fadd float %.sroa.06.4.vec.extract.i, %22
  %24 = getelementptr inbounds nuw i8, ptr %1, i64 24
  %25 = load <2 x float>, ptr %24, align 4
  %.sroa.3.8.vec.extract.i20 = extractelement <2 x float> %12, i64 0
  %.sroa.0.0.vec.extract.i21 = extractelement <2 x float> %25, i64 0
  %26 = fmul <2 x float> %12, %25
  %27 = extractelement <2 x float> %26, i64 0
  %.sroa.3.12.vec.extract.i22 = extractelement <2 x float> %12, i64 1
  %.sroa.0.4.vec.extract.i23 = extractelement <2 x float> %25, i64 1
  %28 = fmul float %.sroa.3.12.vec.extract.i22, %.sroa.0.4.vec.extract.i23
  %29 = fsub float %27, %28
  %.sroa.06.0.vec.extract.i24 = extractelement <2 x float> %11, i64 0
  %30 = fadd float %.sroa.06.0.vec.extract.i24, %29
  %31 = fmul float %.sroa.3.12.vec.extract.i22, %.sroa.0.0.vec.extract.i21
  %32 = fmul float %.sroa.3.8.vec.extract.i20, %.sroa.0.4.vec.extract.i23
  %33 = fadd float %31, %32
  %.sroa.06.4.vec.extract.i25 = extractelement <2 x float> %11, i64 1
  %34 = fadd float %.sroa.06.4.vec.extract.i25, %33
  %35 = fsub float %30, %19
  %36 = fsub float %34, %23
  %37 = fmul float %35, %35
  %38 = fmul float %36, %36
  %39 = fadd float %37, %38
  %sqrt.i = tail call float @llvm.sqrt.f32(float %39)
  %40 = fcmp olt float %sqrt.i, 0x3E80000000000000
  br i1 %40, label %b2Normalize.exit, label %41

41:                                               ; preds = %2
  %42 = fdiv float 1.000000e+00, %sqrt.i
  %43 = fmul float %35, %42
  %.sroa.012.0.vec.insert.i = insertelement <2 x float> poison, float %43, i64 0
  %44 = fmul float %36, %42
  %.sroa.012.4.vec.insert.i = insertelement <2 x float> %.sroa.012.0.vec.insert.i, float %44, i64 1
  br label %b2Normalize.exit

b2Normalize.exit:                                 ; preds = %2, %41
  %.sroa.012.0.i = phi <2 x float> [ %.sroa.012.4.vec.insert.i, %41 ], [ zeroinitializer, %2 ]
  %45 = getelementptr inbounds nuw i8, ptr %1, i64 76
  %46 = load float, ptr %45, align 4, !tbaa !13
  %47 = getelementptr inbounds nuw i8, ptr %1, i64 80
  %48 = load float, ptr %47, align 4, !tbaa !14
  %49 = fadd float %46, %48
  %50 = getelementptr inbounds nuw i8, ptr %1, i64 84
  %51 = load float, ptr %50, align 4, !tbaa !15
  %52 = fsub float %49, %51
  %53 = getelementptr inbounds nuw i8, ptr %1, i64 88
  %54 = load float, ptr %53, align 4, !tbaa !78
  %55 = fadd float %52, %54
  %56 = getelementptr inbounds nuw i8, ptr %0, i64 1768
  %57 = load float, ptr %56, align 8, !tbaa !77
  %58 = fmul float %55, %57
  %.sroa.0.0.vec.extract.i32 = extractelement <2 x float> %.sroa.012.0.i, i64 0
  %59 = fmul float %.sroa.0.0.vec.extract.i32, %58
  %.sroa.02.0.vec.insert.i33 = insertelement <2 x float> poison, float %59, i64 0
  %.sroa.0.4.vec.extract.i34 = extractelement <2 x float> %.sroa.012.0.i, i64 1
  %60 = fmul float %.sroa.0.4.vec.extract.i34, %58
  %.sroa.02.4.vec.insert.i35 = insertelement <2 x float> %.sroa.02.0.vec.insert.i33, float %60, i64 1
  ret <2 x float> %.sroa.02.4.vec.insert.i35
}